Certificate:
    Data:
        Version: 3 (0x2)
        Serial Number: 4 (0x4)
        Signature Algorithm: sha256WithRSAEncryption
        Issuer: C=JP, ST=Kanagawa, L=Yokohama, O=hoge company, OU=hoge section, CN=hoge CA/emailAddress=hoge@example.com
        Validity
            Not Before: Feb 25 13:04:46 2021 GMT
            Not After : Feb 25 13:04:46 2022 GMT
        Subject: C=JP, ST=Kanagawa, O=hoge company, OU=hoge section, CN=localhost/emailAddress=local@example.com
        Subject Public Key Info:
            Public Key Algorithm: rsaEncryption
                RSA Public-Key: (2048 bit)
                Modulus:
                    00:c5:41:15:7e:28:c1:1c:19:71:33:1e:fe:bd:51:
                    ce:3c:f8:58:27:27:95:60:4a:1c:df:6d:1e:2e:40:
                    a5:9b:ec:d7:0f:39:fa:71:bb:a6:be:4a:2e:a9:43:
                    93:d6:fa:eb:86:a9:30:7c:94:8f:f5:08:57:1c:a2:
                    61:5a:3f:dc:5c:70:2b:f7:d3:46:37:24:c1:b4:c2:
                    a6:de:54:b7:57:bc:f4:3c:c4:1c:e6:b7:83:cf:ec:
                    56:ea:6d:2b:a0:7a:e8:aa:2b:76:88:76:66:c5:ee:
                    0c:b9:57:18:f8:a1:9f:72:8c:8d:44:74:b4:6b:60:
                    f0:a7:a0:51:fd:31:3f:87:d7:c9:e6:77:44:a1:35:
                    09:39:05:3f:1e:72:fa:bd:6a:65:50:f2:87:ff:cb:
                    c2:61:90:9e:25:0e:cf:40:e0:2a:16:86:cd:b7:21:
                    5a:21:16:2c:bf:12:08:4e:d4:8d:7d:cd:61:c5:75:
                    75:00:40:6f:db:a7:3e:4c:72:ee:c0:ba:62:fe:9c:
                    a1:90:ac:de:3b:33:07:66:9e:c9:86:dd:30:1d:22:
                    4b:dc:76:16:87:39:b4:a1:2d:b1:3d:14:6e:cf:1a:
                    46:23:c3:49:c5:c1:af:e3:eb:89:2a:08:79:49:9e:
                    21:fd:59:bd:78:62:bf:8d:a1:48:64:69:9a:e7:c6:
                    bb:cf
                Exponent: 65537 (0x10001)
        X509v3 extensions:
            X509v3 Subject Alternative Name: 
                DNS:localhost
    Signature Algorithm: sha256WithRSAEncryption
         8c:81:a6:48:9b:a5:da:d0:6e:36:2a:b5:b3:7c:64:cf:71:f1:
         cf:ec:75:5a:32:3d:1d:82:bf:5c:2d:e7:e3:40:42:3c:2a:02:
         84:77:0b:1b:71:1c:c9:79:5d:52:12:dd:fd:74:7e:a5:ec:9f:
         dd:cd:af:b0:7c:42:0e:7d:27:82:ef:59:54:5a:1f:47:ae:af:
         e7:e8:f1:d5:7f:1b:08:0d:6e:80:78:1e:3a:39:a6:9e:e0:d6:
         a8:fd:77:1c:c4:bd:44:87:2f:de:b5:7b:16:ed:48:9e:3e:3c:
         b7:87:09:99:7c:3a:7c:6c:fd:94:9c:bb:3d:f8:69:a1:7f:cb:
         7a:7f:04:79:f5:b0:58:27:eb:05:e5:9d:37:ff:55:13:a0:a6:
         7a:be:9d:1c:ea:53:f4:62:2c:08:56:70:ab:c2:80:82:c6:57:
         6e:d2:f9:77:d8:d1:d3:14:28:04:7b:82:03:e6:5c:e5:0b:d4:
         49:8a:42:ed:33:ec:00:ff:c5:96:48:17:e2:ee:91:16:2c:ef:
         19:fe:72:b5:2e:d0:c5:84:bc:d4:91:04:a3:12:90:67:44:e7:
         4f:44:38:3e:88:10:6c:4e:28:80:a6:51:6e:3a:7a:41:1e:be:
         51:13:a1:ed:1c:e5:a1:d6:b5:14:97:1c:e0:31:07:0a:42:18:
         d0:27:44:06
-----BEGIN CERTIFICATE-----
MIIDrTCCApWgAwIBAgIBBDANBgkqhkiG9w0BAQsFADCBlDELMAkGA1UEBhMCSlAx
ETAPBgNVBAgMCEthbmFnYXdhMREwDwYDVQQHDAhZb2tvaGFtYTEVMBMGA1UECgwM
aG9nZSBjb21wYW55MRUwEwYDVQQLDAxob2dlIHNlY3Rpb24xEDAOBgNVBAMMB2hv
Z2UgQ0ExHzAdBgkqhkiG9w0BCQEWEGhvZ2VAZXhhbXBsZS5jb20wHhcNMjEwMjI1
MTMwNDQ2WhcNMjIwMjI1MTMwNDQ2WjCBhDELMAkGA1UEBhMCSlAxETAPBgNVBAgM
CEthbmFnYXdhMRUwEwYDVQQKDAxob2dlIGNvbXBhbnkxFTATBgNVBAsMDGhvZ2Ug
c2VjdGlvbjESMBAGA1UEAwwJbG9jYWxob3N0MSAwHgYJKoZIhvcNAQkBFhFsb2Nh
bEBleGFtcGxlLmNvbTCCASIwDQYJKoZIhvcNAQEBBQADggEPADCCAQoCggEBAMVB
FX4owRwZcTMe/r1Rzjz4WCcnlWBKHN9tHi5ApZvs1w85+nG7pr5KLqlDk9b664ap
MHyUj/UIVxyiYVo/3FxwK/fTRjckwbTCpt5Ut1e89DzEHOa3g8/sVuptK6B66Kor
doh2ZsXuDLlXGPihn3KMjUR0tGtg8KegUf0xP4fXyeZ3RKE1CTkFPx5y+r1qZVDy
h//LwmGQniUOz0DgKhaGzbchWiEWLL8SCE7UjX3NYcV1dQBAb9unPkxy7sC6Yv6c
oZCs3jszB2aeyYbdMB0iS9x2Foc5tKEtsT0Ubs8aRiPDScXBr+PriSoIeUmeIf1Z
vXhiv42hSGRpmufGu88CAwEAAaMYMBYwFAYDVR0RBA0wC4IJbG9jYWxob3N0MA0G
CSqGSIb3DQEBCwUAA4IBAQCMgaZIm6Xa0G42KrWzfGTPcfHP7HVaMj0dgr9cLefj
QEI8KgKEdwsbcRzJeV1SEt39dH6l7J/dza+wfEIOfSeC71lUWh9Hrq/n6PHVfxsI
DW6AeB46Oaae4Nao/XccxL1Ehy/etXsW7UiePjy3hwmZfDp8bP2UnLs9+Gmhf8t6
fwR59bBYJ+sF5Z03/1UToKZ6vp0c6lP0YiwIVnCrwoCCxldu0vl32NHTFCgEe4ID
5lzlC9RJikLtM+wA/8WWSBfi7pEWLO8Z/nK1LtDFhLzUkQSjEpBnROdPRDg+iBBs
TiiAplFuOnpBHr5RE6HtHOWh1rUUlxzgMQcKQhjQJ0QG
-----END CERTIFICATE-----
