Certificate:
    Data:
        Version: 3 (0x2)
        Serial Number: 3 (0x3)
        Signature Algorithm: sha256WithRSAEncryption
        Issuer: C=JP, ST=Kanagawa, L=Yokohama, O=hoge company, OU=hoge section, CN=hoge inter CA/emailAddress=inter@example.com
        Validity
            Not Before: Feb 21 05:17:18 2021 GMT
            Not After : May 27 05:17:18 2023 GMT
        Subject: C=JP, ST=Kanagawa, O=hoge company, CN=localhost
        Subject Public Key Info:
            Public Key Algorithm: rsaEncryption
                RSA Public-Key: (2048 bit)
                Modulus:
                    00:c5:41:15:7e:28:c1:1c:19:71:33:1e:fe:bd:51:
                    ce:3c:f8:58:27:27:95:60:4a:1c:df:6d:1e:2e:40:
                    a5:9b:ec:d7:0f:39:fa:71:bb:a6:be:4a:2e:a9:43:
                    93:d6:fa:eb:86:a9:30:7c:94:8f:f5:08:57:1c:a2:
                    61:5a:3f:dc:5c:70:2b:f7:d3:46:37:24:c1:b4:c2:
                    a6:de:54:b7:57:bc:f4:3c:c4:1c:e6:b7:83:cf:ec:
                    56:ea:6d:2b:a0:7a:e8:aa:2b:76:88:76:66:c5:ee:
                    0c:b9:57:18:f8:a1:9f:72:8c:8d:44:74:b4:6b:60:
                    f0:a7:a0:51:fd:31:3f:87:d7:c9:e6:77:44:a1:35:
                    09:39:05:3f:1e:72:fa:bd:6a:65:50:f2:87:ff:cb:
                    c2:61:90:9e:25:0e:cf:40:e0:2a:16:86:cd:b7:21:
                    5a:21:16:2c:bf:12:08:4e:d4:8d:7d:cd:61:c5:75:
                    75:00:40:6f:db:a7:3e:4c:72:ee:c0:ba:62:fe:9c:
                    a1:90:ac:de:3b:33:07:66:9e:c9:86:dd:30:1d:22:
                    4b:dc:76:16:87:39:b4:a1:2d:b1:3d:14:6e:cf:1a:
                    46:23:c3:49:c5:c1:af:e3:eb:89:2a:08:79:49:9e:
                    21:fd:59:bd:78:62:bf:8d:a1:48:64:69:9a:e7:c6:
                    bb:cf
                Exponent: 65537 (0x10001)
        X509v3 extensions:
            X509v3 Basic Constraints: 
                CA:FALSE
            Netscape Comment: 
                OpenSSL Generated Certificate
            X509v3 Subject Key Identifier: 
                E6:10:AD:DE:DD:48:66:7D:5A:76:F8:CD:59:B5:C2:9B:7D:75:2B:7D
            X509v3 Authority Key Identifier: 
                DirName:/C=JP/ST=Kanagawa/L=Yokohama/O=hoge company/OU=hoge section/CN=hoge CA/emailAddress=hoge@example.com
                serial:01

            X509v3 Subject Alternative Name: 
                DNS:localhost
    Signature Algorithm: sha256WithRSAEncryption
         a1:6d:5b:80:e5:8c:e5:4e:74:93:b5:b7:3e:11:17:ff:91:9d:
         2f:03:a0:cb:00:76:1a:75:4d:0f:f4:8d:2c:a8:19:34:9a:9e:
         2b:ee:d5:45:53:13:9c:d7:fc:8e:1a:06:68:4e:31:ad:d9:f4:
         68:54:54:b4:e0:2a:bf:00:aa:c1:62:c8:f6:e0:62:39:07:c3:
         fe:eb:a8:45:44:b5:08:b5:14:79:69:5b:0c:e9:61:ca:ba:95:
         cd:a5:7f:9e:7c:0d:b6:9f:4c:b8:ef:08:61:00:d9:18:d2:e9:
         d1:9e:3d:e6:9a:ba:e9:3d:89:f8:81:7f:ca:17:ed:6b:f9:8e:
         39:b2:23:bc:ff:38:6f:46:7f:b6:4d:4d:a7:1c:ab:71:33:74:
         f6:db:21:67:7d:07:a5:3a:f8:e1:fa:be:59:1b:8e:b1:9e:57:
         99:4d:40:b8:63:2a:53:1d:8b:70:59:3b:f4:bb:96:4f:b9:b3:
         4e:3b:c3:32:e7:e9:18:bf:45:68:65:b5:a9:a7:c2:a6:87:fa:
         58:a7:02:ff:af:a5:4a:e4:05:a2:6e:16:66:a5:de:22:b6:89:
         97:b8:46:40:80:eb:52:3a:1d:a4:bd:0d:bc:d6:74:a3:32:a4:
         6e:7f:51:9f:c8:7f:31:a6:59:f2:79:82:d0:96:2f:5c:f1:36:
         75:90:dc:66
-----BEGIN CERTIFICATE-----
MIIEhDCCA2ygAwIBAgIBAzANBgkqhkiG9w0BAQsFADCBmzELMAkGA1UEBhMCSlAx
ETAPBgNVBAgMCEthbmFnYXdhMREwDwYDVQQHDAhZb2tvaGFtYTEVMBMGA1UECgwM
aG9nZSBjb21wYW55MRUwEwYDVQQLDAxob2dlIHNlY3Rpb24xFjAUBgNVBAMMDWhv
Z2UgaW50ZXIgQ0ExIDAeBgkqhkiG9w0BCQEWEWludGVyQGV4YW1wbGUuY29tMB4X
DTIxMDIyMTA1MTcxOFoXDTIzMDUyNzA1MTcxOFowSzELMAkGA1UEBhMCSlAxETAP
BgNVBAgMCEthbmFnYXdhMRUwEwYDVQQKDAxob2dlIGNvbXBhbnkxEjAQBgNVBAMM
CWxvY2FsaG9zdDCCASIwDQYJKoZIhvcNAQEBBQADggEPADCCAQoCggEBAMVBFX4o
wRwZcTMe/r1Rzjz4WCcnlWBKHN9tHi5ApZvs1w85+nG7pr5KLqlDk9b664apMHyU
j/UIVxyiYVo/3FxwK/fTRjckwbTCpt5Ut1e89DzEHOa3g8/sVuptK6B66Kordoh2
ZsXuDLlXGPihn3KMjUR0tGtg8KegUf0xP4fXyeZ3RKE1CTkFPx5y+r1qZVDyh//L
wmGQniUOz0DgKhaGzbchWiEWLL8SCE7UjX3NYcV1dQBAb9unPkxy7sC6Yv6coZCs
3jszB2aeyYbdMB0iS9x2Foc5tKEtsT0Ubs8aRiPDScXBr+PriSoIeUmeIf1ZvXhi
v42hSGRpmufGu88CAwEAAaOCASAwggEcMAkGA1UdEwQCMAAwLAYJYIZIAYb4QgEN
BB8WHU9wZW5TU0wgR2VuZXJhdGVkIENlcnRpZmljYXRlMB0GA1UdDgQWBBTmEK3e
3UhmfVp2+M1ZtcKbfXUrfTCBqwYDVR0jBIGjMIGgoYGapIGXMIGUMQswCQYDVQQG
EwJKUDERMA8GA1UECAwIS2FuYWdhd2ExETAPBgNVBAcMCFlva29oYW1hMRUwEwYD
VQQKDAxob2dlIGNvbXBhbnkxFTATBgNVBAsMDGhvZ2Ugc2VjdGlvbjEQMA4GA1UE
AwwHaG9nZSBDQTEfMB0GCSqGSIb3DQEJARYQaG9nZUBleGFtcGxlLmNvbYIBATAU
BgNVHREEDTALgglsb2NhbGhvc3QwDQYJKoZIhvcNAQELBQADggEBAKFtW4DljOVO
dJO1tz4RF/+RnS8DoMsAdhp1TQ/0jSyoGTSanivu1UVTE5zX/I4aBmhOMa3Z9GhU
VLTgKr8AqsFiyPbgYjkHw/7rqEVEtQi1FHlpWwzpYcq6lc2lf558DbafTLjvCGEA
2RjS6dGePeaauuk9ifiBf8oX7Wv5jjmyI7z/OG9Gf7ZNTaccq3EzdPbbIWd9B6U6
+OH6vlkbjrGeV5lNQLhjKlMdi3BZO/S7lk+5s047wzLn6Ri/RWhltamnwqaH+lin
Av+vpUrkBaJuFmal3iK2iZe4RkCA61I6HaS9DbzWdKMypG5/UZ/IfzGmWfJ5gtCW
L1zxNnWQ3GY=
-----END CERTIFICATE-----
-----BEGIN CERTIFICATE-----
MIID3zCCAsegAwIBAgIBATANBgkqhkiG9w0BAQsFADCBlDELMAkGA1UEBhMCSlAx
ETAPBgNVBAgMCEthbmFnYXdhMREwDwYDVQQHDAhZb2tvaGFtYTEVMBMGA1UECgwM
aG9nZSBjb21wYW55MRUwEwYDVQQLDAxob2dlIHNlY3Rpb24xEDAOBgNVBAMMB2hv
Z2UgQ0ExHzAdBgkqhkiG9w0BCQEWEGhvZ2VAZXhhbXBsZS5jb20wHhcNMjEwMjIw
MTMzNjA3WhcNMjYwMjE5MTMzNjA3WjCBmzELMAkGA1UEBhMCSlAxETAPBgNVBAgM
CEthbmFnYXdhMREwDwYDVQQHDAhZb2tvaGFtYTEVMBMGA1UECgwMaG9nZSBjb21w
YW55MRUwEwYDVQQLDAxob2dlIHNlY3Rpb24xFjAUBgNVBAMMDWhvZ2UgaW50ZXIg
Q0ExIDAeBgkqhkiG9w0BCQEWEWludGVyQGV4YW1wbGUuY29tMIIBIjANBgkqhkiG
9w0BAQEFAAOCAQ8AMIIBCgKCAQEAtwQ8RTmMkRAdvLrCPCHUiBvU6BI+s2fQB6IK
lmnu3NYUFkGmgvgmx0nO/pT90E6AUXTyQAE0CD8jq1clTnceYAZDhCGSgguYpBiZ
YzE7iEx2mO1fZCSCATE3elWK17oYZtmdzvDNKEvxHyQhSOJ2Mz6qCBZJXRIThoSt
ivL9MkScf2BkdeebCuno02rz+VN3yKHXwIu4lifNEPWYLhrO/1r9b6mrl4YSD4tn
UEcG0ngFt5PLi+EL7UHWRFSj13edJBjUM2EjyHJFSHnj3/22g5PlJaP2H2D1GEK/
aw5IGLnOqiXv0cgGYkVbMLcW7lj60fv25QdC8JRCu7gmLc6GiwIDAQABozMwMTAP
BgNVHRMECDAGAQH/AgEAMAsGA1UdDwQEAwIBBjARBglghkgBhvhCAQEEBAMCAQYw
DQYJKoZIhvcNAQELBQADggEBANjhA1fSg0ZyddNl1T7OeCJsmPNgaMXDsmT32CBM
PWRfaHeHYnqqgRw+ju14aSk2c1a2Mv7x1IMdSgythh1ZPTYI3NXBwykTOoLop790
SUXCGZKfuH3WAwfOkIgClcYNi4jSr9waCgAs/5CNqDTZORNa1zydOrEYRFnsF5Zr
H9irJE2UWCjKge6qru4Zw0fLu2x62C10orW2ynFFfzyWmuVWmWHXTCGSmlq5ACV5
UTPEO3QCw17BsFKsPKiR6aUUD2EEd1e54c8ckiKMZ0oPGWa9Lz5mVkeec7sd3XxA
gYnSZaQvIQ63Gs8aYs6POa6lQGpFSPfRu6AZNxo9jGMq8CI=
-----END CERTIFICATE-----
