Certificate:
    Data:
        Version: 3 (0x2)
        Serial Number: 2 (0x2)
        Signature Algorithm: sha256WithRSAEncryption
        Issuer: C=JP, ST=Kanagawa, L=Yokohama, O=hoge company, OU=hoge section, CN=hoge CA/emailAddress=hoge@example.com
        Validity
            Not Before: Dec 16 11:29:01 2020 GMT
            Not After : Dec 16 11:29:01 2021 GMT
        Subject: C=JP, ST=Kanagawa, O=hoge company, OU=hogesection, CN=localhost/emailAddress=hoge@example.com
        Subject Public Key Info:
            Public Key Algorithm: rsaEncryption
                RSA Public-Key: (2048 bit)
                Modulus:
                    00:c5:41:15:7e:28:c1:1c:19:71:33:1e:fe:bd:51:
                    ce:3c:f8:58:27:27:95:60:4a:1c:df:6d:1e:2e:40:
                    a5:9b:ec:d7:0f:39:fa:71:bb:a6:be:4a:2e:a9:43:
                    93:d6:fa:eb:86:a9:30:7c:94:8f:f5:08:57:1c:a2:
                    61:5a:3f:dc:5c:70:2b:f7:d3:46:37:24:c1:b4:c2:
                    a6:de:54:b7:57:bc:f4:3c:c4:1c:e6:b7:83:cf:ec:
                    56:ea:6d:2b:a0:7a:e8:aa:2b:76:88:76:66:c5:ee:
                    0c:b9:57:18:f8:a1:9f:72:8c:8d:44:74:b4:6b:60:
                    f0:a7:a0:51:fd:31:3f:87:d7:c9:e6:77:44:a1:35:
                    09:39:05:3f:1e:72:fa:bd:6a:65:50:f2:87:ff:cb:
                    c2:61:90:9e:25:0e:cf:40:e0:2a:16:86:cd:b7:21:
                    5a:21:16:2c:bf:12:08:4e:d4:8d:7d:cd:61:c5:75:
                    75:00:40:6f:db:a7:3e:4c:72:ee:c0:ba:62:fe:9c:
                    a1:90:ac:de:3b:33:07:66:9e:c9:86:dd:30:1d:22:
                    4b:dc:76:16:87:39:b4:a1:2d:b1:3d:14:6e:cf:1a:
                    46:23:c3:49:c5:c1:af:e3:eb:89:2a:08:79:49:9e:
                    21:fd:59:bd:78:62:bf:8d:a1:48:64:69:9a:e7:c6:
                    bb:cf
                Exponent: 65537 (0x10001)
        X509v3 extensions:
            X509v3 Basic Constraints: 
                CA:FALSE
            Netscape Comment: 
                OpenSSL Generated Certificate
            X509v3 Subject Key Identifier: 
                E6:10:AD:DE:DD:48:66:7D:5A:76:F8:CD:59:B5:C2:9B:7D:75:2B:7D
            X509v3 Authority Key Identifier: 
                DirName:/C=JP/ST=Kanagawa/L=Yokohama/O=hoge company/OU=hoge section/CN=hoge CA/emailAddress=hoge@example.com
                serial:4A:D9:FD:63:EA:15:24:56:EA:3E:21:F0:84:B0:6A:09:A9:4F:CD:41

    Signature Algorithm: sha256WithRSAEncryption
         d8:eb:3c:39:53:fd:6f:1a:9b:ca:19:f9:c8:32:cc:61:8f:86:
         f9:be:de:41:e6:87:5b:1d:51:d3:bc:27:f3:eb:3d:07:08:c4:
         46:eb:e9:02:e6:95:17:2a:e0:53:d9:87:c4:61:7e:8e:ca:13:
         b1:d8:56:bf:0c:f7:ba:57:63:32:1b:19:37:07:a4:77:08:0a:
         40:a2:65:b0:95:62:1b:ca:0a:0e:ec:8d:43:bc:9f:3c:38:39:
         60:16:0d:f3:f6:4c:ce:b0:01:7c:5e:77:1b:50:d1:b2:11:bf:
         25:16:a1:b9:82:10:ce:ce:fa:cf:ad:0d:14:c0:3a:db:d4:20:
         01:98:25:40:16:de:e0:40:89:68:07:70:ce:c1:d3:14:30:40:
         14:6c:4d:7c:93:2b:e0:cb:9d:b4:0c:9b:cc:2f:e9:14:82:7f:
         2c:31:38:2f:95:c5:ed:c6:9f:62:3c:43:ac:56:28:cb:5c:12:
         8a:d1:89:52:1b:70:4d:98:15:47:9f:ba:7c:ad:5c:3e:3a:f3:
         d8:89:65:a2:26:78:6e:30:59:4d:f9:db:a8:76:4d:ed:4a:53:
         07:64:53:62:8d:b8:23:8a:83:80:e4:de:b4:cf:da:57:41:66:
         f6:ae:b1:e9:60:af:ee:80:bc:df:8e:05:10:ee:fe:b7:98:43:
         7b:ba:ad:38
-----BEGIN CERTIFICATE-----
MIIEsjCCA5qgAwIBAgIBAjANBgkqhkiG9w0BAQsFADCBlDELMAkGA1UEBhMCSlAx
ETAPBgNVBAgMCEthbmFnYXdhMREwDwYDVQQHDAhZb2tvaGFtYTEVMBMGA1UECgwM
aG9nZSBjb21wYW55MRUwEwYDVQQLDAxob2dlIHNlY3Rpb24xEDAOBgNVBAMMB2hv
Z2UgQ0ExHzAdBgkqhkiG9w0BCQEWEGhvZ2VAZXhhbXBsZS5jb20wHhcNMjAxMjE2
MTEyOTAxWhcNMjExMjE2MTEyOTAxWjCBgjELMAkGA1UEBhMCSlAxETAPBgNVBAgM
CEthbmFnYXdhMRUwEwYDVQQKDAxob2dlIGNvbXBhbnkxFDASBgNVBAsMC2hvZ2Vz
ZWN0aW9uMRIwEAYDVQQDDAlsb2NhbGhvc3QxHzAdBgkqhkiG9w0BCQEWEGhvZ2VA
ZXhhbXBsZS5jb20wggEiMA0GCSqGSIb3DQEBAQUAA4IBDwAwggEKAoIBAQDFQRV+
KMEcGXEzHv69Uc48+FgnJ5VgShzfbR4uQKWb7NcPOfpxu6a+Si6pQ5PW+uuGqTB8
lI/1CFccomFaP9xccCv300Y3JMG0wqbeVLdXvPQ8xBzmt4PP7FbqbSugeuiqK3aI
dmbF7gy5Vxj4oZ9yjI1EdLRrYPCnoFH9MT+H18nmd0ShNQk5BT8ecvq9amVQ8of/
y8JhkJ4lDs9A4CoWhs23IVohFiy/EghO1I19zWHFdXUAQG/bpz5Mcu7AumL+nKGQ
rN47MwdmnsmG3TAdIkvcdhaHObShLbE9FG7PGkYjw0nFwa/j64kqCHlJniH9Wb14
Yr+NoUhkaZrnxrvPAgMBAAGjggEdMIIBGTAJBgNVHRMEAjAAMCwGCWCGSAGG+EIB
DQQfFh1PcGVuU1NMIEdlbmVyYXRlZCBDZXJ0aWZpY2F0ZTAdBgNVHQ4EFgQU5hCt
3t1IZn1advjNWbXCm311K30wgb4GA1UdIwSBtjCBs6GBmqSBlzCBlDELMAkGA1UE
BhMCSlAxETAPBgNVBAgMCEthbmFnYXdhMREwDwYDVQQHDAhZb2tvaGFtYTEVMBMG
A1UECgwMaG9nZSBjb21wYW55MRUwEwYDVQQLDAxob2dlIHNlY3Rpb24xEDAOBgNV
BAMMB2hvZ2UgQ0ExHzAdBgkqhkiG9w0BCQEWEGhvZ2VAZXhhbXBsZS5jb22CFErZ
/WPqFSRW6j4h8ISwagmpT81BMA0GCSqGSIb3DQEBCwUAA4IBAQDY6zw5U/1vGpvK
GfnIMsxhj4b5vt5B5odbHVHTvCfz6z0HCMRG6+kC5pUXKuBT2YfEYX6OyhOx2Fa/
DPe6V2MyGxk3B6R3CApAomWwlWIbygoO7I1DvJ88ODlgFg3z9kzOsAF8XncbUNGy
Eb8lFqG5ghDOzvrPrQ0UwDrb1CABmCVAFt7gQIloB3DOwdMUMEAUbE18kyvgy520
DJvML+kUgn8sMTgvlcXtxp9iPEOsVijLXBKK0YlSG3BNmBVHn7p8rVw+OvPYiWWi
JnhuMFlN+duodk3tSlMHZFNijbgjioOA5N60z9pXQWb2rrHpYK/ugLzfjgUQ7v63
mEN7uq04
-----END CERTIFICATE-----
