Certificate:
    Data:
        Version: 3 (0x2)
        Serial Number: 0 (0x0)
        Signature Algorithm: sha256WithRSAEncryption
        Issuer: C=JP, ST=Kanagawa, L=Yokohama, O=hoge company, OU=hoge section, CN=hoge CA/emailAddress=hoge@example.com
        Validity
            Not Before: Feb 14 07:55:16 2021 GMT
            Not After : Feb 12 07:55:16 2031 GMT
        Subject: C=JP, ST=Kanagawa, O=hoge company, OU=hoge section, CN=taro/emailAddress=taro@exsample.com
        Subject Public Key Info:
            Public Key Algorithm: rsaEncryption
                RSA Public-Key: (1024 bit)
                Modulus:
                    00:b0:bd:98:bf:2a:c7:02:e3:83:91:ed:3e:04:a0:
                    c3:4b:1e:e6:b6:75:7d:37:f1:b4:5d:d6:53:58:56:
                    72:49:61:bd:13:e0:25:bc:2d:e3:88:4c:42:b9:a3:
                    b2:b3:2f:c9:95:96:6d:83:eb:c3:74:77:65:a9:59:
                    4d:35:97:18:eb:7e:10:3d:cc:29:11:84:d6:40:01:
                    c4:63:3d:da:7b:f9:76:2b:36:c3:47:51:78:81:38:
                    f1:6d:7b:e4:c8:af:cc:ad:8d:eb:06:43:17:3b:7c:
                    3e:dc:ba:87:a7:0a:7b:42:c4:7b:10:0f:16:28:9d:
                    13:af:26:51:bf:88:59:03:5b
                Exponent: 65537 (0x10001)
        X509v3 extensions:
            X509v3 Basic Constraints: 
                CA:FALSE
            Netscape Comment: 
                OpenSSL Generated Certificate
            X509v3 Subject Key Identifier: 
                5D:C8:A7:0E:A9:47:27:26:92:04:42:58:65:F3:D7:71:8C:E3:20:5A
            X509v3 Authority Key Identifier: 
                DirName:/C=JP/ST=Kanagawa/L=Yokohama/O=hoge company/OU=hoge section/CN=hoge CA/emailAddress=hoge@example.com
                serial:4A:D9:FD:63:EA:15:24:56:EA:3E:21:F0:84:B0:6A:09:A9:4F:CD:41

    Signature Algorithm: sha256WithRSAEncryption
         54:db:f5:4b:1a:f1:96:66:c1:9a:1c:8e:ba:66:70:45:93:b3:
         d2:76:19:39:8a:50:7c:e2:62:d3:25:8a:6b:13:21:5c:bc:8c:
         19:57:90:5a:46:67:4f:9d:20:dc:ce:92:3e:81:05:01:72:85:
         9f:03:0c:ce:6d:a7:2c:9f:17:49:df:19:cd:23:b2:d6:99:2b:
         8e:89:de:c9:50:83:70:65:06:95:c3:49:14:7b:8c:48:d0:f5:
         ce:50:bf:77:b3:23:50:a0:ee:3f:cb:bb:39:ea:4f:6f:44:02:
         6b:3d:94:00:b1:c3:eb:bf:0c:d4:42:85:7c:38:2f:c6:d6:e3:
         c6:f9:e5:31:07:34:d2:2a:7a:b3:90:9f:7b:9f:b7:08:7c:5a:
         0d:ca:64:2f:9f:50:d3:ea:a7:ef:f4:44:22:40:bd:da:4e:18:
         20:85:61:40:e1:d3:8c:8d:10:ea:bd:4b:2d:7a:7d:54:67:29:
         55:4e:88:b5:bf:58:0d:73:1b:4b:17:11:aa:e4:e8:71:32:58:
         05:c3:d1:72:5a:97:88:e9:55:2d:c5:99:ef:6f:80:37:ec:07:
         a6:c2:4e:c7:31:18:d7:b1:7f:f3:7f:25:db:29:61:67:23:27:
         1d:5b:ba:c4:a1:9b:b4:5c:85:ba:e3:80:71:db:fb:76:ee:56:
         85:71:0b:06
-----BEGIN CERTIFICATE-----
MIIEKjCCAxKgAwIBAgIBADANBgkqhkiG9w0BAQsFADCBlDELMAkGA1UEBhMCSlAx
ETAPBgNVBAgMCEthbmFnYXdhMREwDwYDVQQHDAhZb2tvaGFtYTEVMBMGA1UECgwM
aG9nZSBjb21wYW55MRUwEwYDVQQLDAxob2dlIHNlY3Rpb24xEDAOBgNVBAMMB2hv
Z2UgQ0ExHzAdBgkqhkiG9w0BCQEWEGhvZ2VAZXhhbXBsZS5jb20wHhcNMjEwMjE0
MDc1NTE2WhcNMzEwMjEyMDc1NTE2WjB/MQswCQYDVQQGEwJKUDERMA8GA1UECAwI
S2FuYWdhd2ExFTATBgNVBAoMDGhvZ2UgY29tcGFueTEVMBMGA1UECwwMaG9nZSBz
ZWN0aW9uMQ0wCwYDVQQDDAR0YXJvMSAwHgYJKoZIhvcNAQkBFhF0YXJvQGV4c2Ft
cGxlLmNvbTCBnzANBgkqhkiG9w0BAQEFAAOBjQAwgYkCgYEAsL2YvyrHAuODke0+
BKDDSx7mtnV9N/G0XdZTWFZySWG9E+AlvC3jiExCuaOysy/JlZZtg+vDdHdlqVlN
NZcY634QPcwpEYTWQAHEYz3ae/l2KzbDR1F4gTjxbXvkyK/MrY3rBkMXO3w+3LqH
pwp7QsR7EA8WKJ0TryZRv4hZA1sCAwEAAaOCAR0wggEZMAkGA1UdEwQCMAAwLAYJ
YIZIAYb4QgENBB8WHU9wZW5TU0wgR2VuZXJhdGVkIENlcnRpZmljYXRlMB0GA1Ud
DgQWBBRdyKcOqUcnJpIEQlhl89dxjOMgWjCBvgYDVR0jBIG2MIGzoYGapIGXMIGU
MQswCQYDVQQGEwJKUDERMA8GA1UECAwIS2FuYWdhd2ExETAPBgNVBAcMCFlva29o
YW1hMRUwEwYDVQQKDAxob2dlIGNvbXBhbnkxFTATBgNVBAsMDGhvZ2Ugc2VjdGlv
bjEQMA4GA1UEAwwHaG9nZSBDQTEfMB0GCSqGSIb3DQEJARYQaG9nZUBleGFtcGxl
LmNvbYIUStn9Y+oVJFbqPiHwhLBqCalPzUEwDQYJKoZIhvcNAQELBQADggEBAFTb
9Usa8ZZmwZocjrpmcEWTs9J2GTmKUHziYtMlimsTIVy8jBlXkFpGZ0+dINzOkj6B
BQFyhZ8DDM5tpyyfF0nfGc0jstaZK46J3slQg3BlBpXDSRR7jEjQ9c5Qv3ezI1Cg
7j/LuznqT29EAms9lACxw+u/DNRChXw4L8bW48b55TEHNNIqerOQn3uftwh8Wg3K
ZC+fUNPqp+/0RCJAvdpOGCCFYUDh04yNEOq9Sy16fVRnKVVOiLW/WA1zG0sXEark
6HEyWAXD0XJal4jpVS3Fme9vgDfsB6bCTscxGNexf/N/JdspYWcjJx1busShm7Rc
hbrjgHHb+3buVoVxCwY=
-----END CERTIFICATE-----
