Certificate:
    Data:
        Version: 3 (0x2)
        Serial Number: 1 (0x1)
        Signature Algorithm: sha256WithRSAEncryption
        Issuer: C=JP, ST=Kanagawa, L=Yokohama, O=hoge company, OU=hoge section, CN=hoge CA/emailAddress=hoge@example.com
        Validity
            Not Before: Feb 14 07:58:59 2021 GMT
            Not After : Feb 12 07:58:59 2031 GMT
        Subject: C=JP, ST=Kanagawa, O=hoge company, OU=hoge section, CN=jiro/emailAddress=jiro@example.com
        Subject Public Key Info:
            Public Key Algorithm: rsaEncryption
                RSA Public-Key: (1024 bit)
                Modulus:
                    00:c0:7a:31:0e:bf:43:a6:80:33:93:5c:0c:8d:c2:
                    d1:f2:ae:59:81:40:eb:01:42:6e:a6:f1:e1:03:28:
                    3a:85:5d:37:f1:9a:95:96:53:7c:bf:ba:78:f0:e3:
                    fa:89:8c:c6:da:d5:7d:63:06:bd:e6:dc:76:77:5a:
                    3b:22:92:1e:46:f0:86:d5:a5:cf:37:ca:78:03:dd:
                    78:22:1b:45:03:54:56:85:cb:29:2f:0f:d8:a2:53:
                    4a:61:67:b5:51:c4:94:0c:6f:fe:e1:74:ad:0e:06:
                    7b:f4:0e:73:38:21:3e:9f:b4:7f:dd:9c:b4:af:d9:
                    15:1a:45:cc:35:bf:2e:3e:b3
                Exponent: 65537 (0x10001)
        X509v3 extensions:
            X509v3 Basic Constraints: 
                CA:FALSE
            Netscape Comment: 
                OpenSSL Generated Certificate
            X509v3 Subject Key Identifier: 
                B5:EA:77:97:4A:7F:09:48:F1:C0:64:CF:82:07:EA:EA:C5:DD:32:51
            X509v3 Authority Key Identifier: 
                DirName:/C=JP/ST=Kanagawa/L=Yokohama/O=hoge company/OU=hoge section/CN=hoge CA/emailAddress=hoge@example.com
                serial:4A:D9:FD:63:EA:15:24:56:EA:3E:21:F0:84:B0:6A:09:A9:4F:CD:41

    Signature Algorithm: sha256WithRSAEncryption
         39:f5:1e:10:16:cc:dd:63:a8:86:59:69:67:19:b6:81:5c:25:
         2e:c6:5e:6e:c3:ac:ea:9a:95:b1:32:d8:37:97:8a:95:f2:c8:
         58:bb:56:a2:1f:dd:ef:d4:b7:09:52:0b:88:46:47:a3:b4:b4:
         e5:14:4e:c7:87:26:ea:b6:c2:37:64:bd:80:65:21:12:eb:c3:
         b0:fb:f5:6c:22:50:68:f3:9a:11:83:1b:88:ae:1d:48:66:2e:
         41:68:93:e6:c9:9b:26:12:ea:34:47:d3:fc:db:ab:7f:88:c8:
         bd:c1:d5:91:a2:9c:2d:e7:30:16:15:6e:23:e9:89:d7:6e:ac:
         aa:7c:d2:87:1a:cf:f4:64:b0:5f:69:aa:22:35:8e:f7:59:4d:
         1d:ae:6f:13:1f:fd:52:98:9c:0a:65:4e:fa:65:81:6b:79:e3:
         08:49:50:60:51:50:33:88:5d:4a:85:a6:ee:1b:c6:c3:9f:41:
         30:b1:3c:a4:6d:82:63:d1:cf:88:08:16:78:8f:8f:34:81:8a:
         a4:7c:f9:52:e7:6d:32:5f:5c:84:27:23:4f:c0:68:ae:f5:6b:
         3d:04:8e:c9:8a:ef:de:67:2b:5a:86:9c:5a:e9:4b:5f:58:0a:
         ff:63:9c:cb:2a:13:72:93:9c:a4:aa:db:95:c0:a9:9d:f2:ee:
         a8:9e:d0:82
-----BEGIN CERTIFICATE-----
MIIEKTCCAxGgAwIBAgIBATANBgkqhkiG9w0BAQsFADCBlDELMAkGA1UEBhMCSlAx
ETAPBgNVBAgMCEthbmFnYXdhMREwDwYDVQQHDAhZb2tvaGFtYTEVMBMGA1UECgwM
aG9nZSBjb21wYW55MRUwEwYDVQQLDAxob2dlIHNlY3Rpb24xEDAOBgNVBAMMB2hv
Z2UgQ0ExHzAdBgkqhkiG9w0BCQEWEGhvZ2VAZXhhbXBsZS5jb20wHhcNMjEwMjE0
MDc1ODU5WhcNMzEwMjEyMDc1ODU5WjB+MQswCQYDVQQGEwJKUDERMA8GA1UECAwI
S2FuYWdhd2ExFTATBgNVBAoMDGhvZ2UgY29tcGFueTEVMBMGA1UECwwMaG9nZSBz
ZWN0aW9uMQ0wCwYDVQQDDARqaXJvMR8wHQYJKoZIhvcNAQkBFhBqaXJvQGV4YW1w
bGUuY29tMIGfMA0GCSqGSIb3DQEBAQUAA4GNADCBiQKBgQDAejEOv0OmgDOTXAyN
wtHyrlmBQOsBQm6m8eEDKDqFXTfxmpWWU3y/unjw4/qJjMba1X1jBr3m3HZ3Wjsi
kh5G8IbVpc83yngD3XgiG0UDVFaFyykvD9iiU0phZ7VRxJQMb/7hdK0OBnv0DnM4
IT6ftH/dnLSv2RUaRcw1vy4+swIDAQABo4IBHTCCARkwCQYDVR0TBAIwADAsBglg
hkgBhvhCAQ0EHxYdT3BlblNTTCBHZW5lcmF0ZWQgQ2VydGlmaWNhdGUwHQYDVR0O
BBYEFLXqd5dKfwlI8cBkz4IH6urF3TJRMIG+BgNVHSMEgbYwgbOhgZqkgZcwgZQx
CzAJBgNVBAYTAkpQMREwDwYDVQQIDAhLYW5hZ2F3YTERMA8GA1UEBwwIWW9rb2hh
bWExFTATBgNVBAoMDGhvZ2UgY29tcGFueTEVMBMGA1UECwwMaG9nZSBzZWN0aW9u
MRAwDgYDVQQDDAdob2dlIENBMR8wHQYJKoZIhvcNAQkBFhBob2dlQGV4YW1wbGUu
Y29tghRK2f1j6hUkVuo+IfCEsGoJqU/NQTANBgkqhkiG9w0BAQsFAAOCAQEAOfUe
EBbM3WOohllpZxm2gVwlLsZebsOs6pqVsTLYN5eKlfLIWLtWoh/d79S3CVILiEZH
o7S05RROx4cm6rbCN2S9gGUhEuvDsPv1bCJQaPOaEYMbiK4dSGYuQWiT5smbJhLq
NEfT/Nurf4jIvcHVkaKcLecwFhVuI+mJ126sqnzShxrP9GSwX2mqIjWO91lNHa5v
Ex/9UpicCmVO+mWBa3njCElQYFFQM4hdSoWm7hvGw59BMLE8pG2CY9HPiAgWeI+P
NIGKpHz5UudtMl9chCcjT8BorvVrPQSOyYrv3mcrWoacWulLX1gK/2OcyyoTcpOc
pKrblcCpnfLuqJ7Qgg==
-----END CERTIFICATE-----
